target datalayout = "e-m:e-p270:32:32-p271:32:32-p272:64:64-i64:64-i128:128-f80:128-n8:16:32:64-S128"
target triple = "x86_64-pc-linux-gnu"

; Function Attrs: nounwind uwtable
define dso_local void @protocol_v2_serve_loop(ptr noundef %0, i32 noundef %1) #0 {
  %3 = alloca ptr, align 8
  %4 = alloca i32, align 4
  store ptr %0, ptr %3, align 8, !tbaa !4
  store i32 %1, ptr %4, align 4, !tbaa !25
  %5 = load i32, ptr %4, align 4, !tbaa !25
  %6 = icmp ne i32 %5, 0
  br i1 %6, label %9, label %7

7:                                                ; preds = %2
  %8 = load ptr, ptr %3, align 8, !tbaa !4
  call void @protocol_v2_advertise_capabilities(ptr noundef %8)
  br label %9

9:                                                ; preds = %7, %2
  %10 = load i32, ptr %4, align 4, !tbaa !25
  %11 = icmp ne i32 %10, 0
  br i1 %11, label %12, label %15

12:                                               ; preds = %9
  %13 = load ptr, ptr %3, align 8, !tbaa !4
  %14 = call i32 @process_request(ptr noundef %13)
  br label %23

15:                                               ; preds = %9
  br label %16

16:                                               ; preds = %21, %15
  %17 = load ptr, ptr %3, align 8, !tbaa !4
  %18 = call i32 @process_request(ptr noundef %17)
  %19 = icmp ne i32 %18, 0
  br i1 %19, label %20, label %21

20:                                               ; preds = %16
  br label %22

21:                                               ; preds = %16
  br label %16

22:                                               ; preds = %20
  br label %23

23:                                               ; preds = %22, %12
  ret void
}