; Function Attrs: nounwind uwtable
define dso_local void @protocol_v2_serve_loop(ptr noundef %0, i32 noundef %1) local_unnamed_addr #0 {
  %.not = icmp eq i32 %1, 0
  br i1 %.not, label %3, label %.critedge

3:                                                ; preds = %2
  tail call void @protocol_v2_advertise_capabilities(ptr noundef %0)
  br label %5

.critedge:                                        ; preds = %2
  %4 = tail call fastcc i32 @process_request(ptr noundef %0)
  br label %.loopexit

5:                                                ; preds = %3, %5
  %6 = tail call fastcc i32 @process_request(ptr noundef %0)
  %.not4 = icmp eq i32 %6, 0
  br i1 %.not4, label %5, label %.loopexit

.loopexit:                                        ; preds = %5, %.critedge
  ret void
}